target datalayout = "e-m:e-p270:32:32-p271:32:32-p272:64:64-i64:64-i128:128-f80:128-n8:16:32:64-S128"
target triple = "x86_64-pc-linux-gnu"

%struct.CVodeMemRec = type { ptr, double, ptr, ptr, i32, i32, double, double, ptr, i32, i32, ptr, ptr, i32, i32, ptr, i32, i32, double, double, ptr, i32, i32, i32, i32, ptr, ptr, ptr, i32, i32, ptr, ptr, ptr, i32, double, i32, i32, double, ptr, ptr, ptr, i32, ptr, ptr, i32, i32, i32, double, ptr, ptr, ptr, [13 x ptr], ptr, ptr, ptr, ptr, ptr, ptr, ptr, ptr, ptr, [13 x ptr], ptr, ptr, ptr, ptr, [13 x ptr], ptr, ptr, ptr, ptr, ptr, i32, [13 x ptr], ptr, ptr, ptr, ptr, ptr, i32, i32, double, i32, i32, i32, i32, i32, double, double, double, double, double, double, double, double, [14 x double], [6 x double], [13 x double], double, double, double, double, double, double, double, double, i32, double, double, i32, double, double, ptr, i32, i64, i32, i32, i32, double, double, double, double, double, double, double, double, double, double, double, double, i64, i32, i64, i64, i64, i64, i64, i64, i64, i64, i64, ptr, i64, i64, ptr, i64, i64, ptr, i64, i64, i64, i64, i64, i64, i32, double, double, double, i64, i64, i64, i64, i64, i64, ptr, i32, ptr, i32, ptr, i32, ptr, i32, i32, i64, i32, ptr, i32, ptr, ptr, ptr, ptr, ptr, ptr, i32, i32, ptr, ptr, ptr, ptr, ptr, i64, double, i32, i32, i64, double, double, double, i32, i32, double, i32, i32, i32, i32, i32, i32, i32, i32, i32, i32, i32, i32, i32, i32, i32, i32, ptr, i64, i32, [6 x [4 x double]], i32, i64, ptr, i32, ptr, ptr, double, double, double, ptr, ptr, ptr, double, double, i32, i32, i64, ptr, i32, ptr, i32, i32, [13 x double], ptr, ptr, ptr, i32, ptr, i32 }

; Function Attrs: nounwind uwtable
define void @cvRestore(ptr noundef %0, double noundef %1) #0 {
  %3 = alloca ptr, align 8
  %4 = alloca double, align 8
  %5 = alloca i32, align 4
  %6 = alloca i32, align 4
  store ptr %0, ptr %3, align 8, !tbaa !10
  store double %1, ptr %4, align 8, !tbaa !150
  call void @llvm.lifetime.start.p0(i64 4, ptr %5) #10
  call void @llvm.lifetime.start.p0(i64 4, ptr %6) #10
  %7 = load double, ptr %4, align 8, !tbaa !150
  %8 = load ptr, ptr %3, align 8, !tbaa !10
  %9 = getelementptr inbounds nuw %struct.CVodeMemRec, ptr %8, i32 0, i32 93
  store double %7, ptr %9, align 8, !tbaa !167
  store i32 1, ptr %6, align 4, !tbaa !3
  br label %10

10:                                               ; preds = %49, %2
  %11 = load i32, ptr %6, align 4, !tbaa !3
  %12 = load ptr, ptr %3, align 8, !tbaa !10
  %13 = getelementptr inbounds nuw %struct.CVodeMemRec, ptr %12, i32 0, i32 82
  %14 = load i32, ptr %13, align 8, !tbaa !169
  %15 = icmp sle i32 %11, %14
  br i1 %15, label %16, label %52

16:                                               ; preds = %10
  %17 = load ptr, ptr %3, align 8, !tbaa !10
  %18 = getelementptr inbounds nuw %struct.CVodeMemRec, ptr %17, i32 0, i32 82
  %19 = load i32, ptr %18, align 8, !tbaa !169
  store i32 %19, ptr %5, align 4, !tbaa !3
  br label %20

20:                                               ; preds = %45, %16
  %21 = load i32, ptr %5, align 4, !tbaa !3
  %22 = load i32, ptr %6, align 4, !tbaa !3
  %23 = icmp sge i32 %21, %22
  br i1 %23, label %24, label %48

24:                                               ; preds = %20
  %25 = load ptr, ptr %3, align 8, !tbaa !10
  %26 = getelementptr inbounds nuw %struct.CVodeMemRec, ptr %25, i32 0, i32 51
  %27 = load i32, ptr %5, align 4, !tbaa !3
  %28 = sub nsw i32 %27, 1
  %29 = sext i32 %28 to i64
  %30 = getelementptr inbounds [13 x ptr], ptr %26, i64 0, i64 %29
  %31 = load ptr, ptr %30, align 8, !tbaa !151
  %32 = load ptr, ptr %3, align 8, !tbaa !10
  %33 = getelementptr inbounds nuw %struct.CVodeMemRec, ptr %32, i32 0, i32 51
  %34 = load i32, ptr %5, align 4, !tbaa !3
  %35 = sext i32 %34 to i64
  %36 = getelementptr inbounds [13 x ptr], ptr %33, i64 0, i64 %35
  %37 = load ptr, ptr %36, align 8, !tbaa !151
  %38 = load ptr, ptr %3, align 8, !tbaa !10
  %39 = getelementptr inbounds nuw %struct.CVodeMemRec, ptr %38, i32 0, i32 51
  %40 = load i32, ptr %5, align 4, !tbaa !3
  %41 = sub nsw i32 %40, 1
  %42 = sext i32 %41 to i64
  %43 = getelementptr inbounds [13 x ptr], ptr %39, i64 0, i64 %42
  %44 = load ptr, ptr %43, align 8, !tbaa !151
  call void @N_VLinearSum(double noundef 1.000000e+00, ptr noundef %31, double noundef -1.000000e+00, ptr noundef %37, ptr noundef %44)
  br label %45

45:                                               ; preds = %24
  %46 = load i32, ptr %5, align 4, !tbaa !3
  %47 = add nsw i32 %46, -1
  store i32 %47, ptr %5, align 4, !tbaa !3
  br label %20

48:                                               ; preds = %20
  br label %49

49:                                               ; preds = %48
  %50 = load i32, ptr %6, align 4, !tbaa !3
  %51 = add nsw i32 %50, 1
  store i32 %51, ptr %6, align 4, !tbaa !3
  br label %10

52:                                               ; preds = %10
  %53 = load ptr, ptr %3, align 8, !tbaa !10
  %54 = getelementptr inbounds nuw %struct.CVodeMemRec, ptr %53, i32 0, i32 14
  %55 = load i32, ptr %54, align 4, !tbaa !75
  %56 = icmp ne i32 %55, 0
  br i1 %56, label %57, label %101

57:                                               ; preds = %52
  store i32 1, ptr %6, align 4, !tbaa !3
  br label %58

58:                                               ; preds = %97, %57
  %59 = load i32, ptr %6, align 4, !tbaa !3
  %60 = load ptr, ptr %3, align 8, !tbaa !10
  %61 = getelementptr inbounds nuw %struct.CVodeMemRec, ptr %60, i32 0, i32 82
  %62 = load i32, ptr %61, align 8, !tbaa !169
  %63 = icmp sle i32 %59, %62
  br i1 %63, label %64, label %100

64:                                               ; preds = %58
  %65 = load ptr, ptr %3, align 8, !tbaa !10
  %66 = getelementptr inbounds nuw %struct.CVodeMemRec, ptr %65, i32 0, i32 82
  %67 = load i32, ptr %66, align 8, !tbaa !169
  store i32 %67, ptr %5, align 4, !tbaa !3
  br label %68

68:                                               ; preds = %93, %64
  %69 = load i32, ptr %5, align 4, !tbaa !3
  %70 = load i32, ptr %6, align 4, !tbaa !3
  %71 = icmp sge i32 %69, %70
  br i1 %71, label %72, label %96

72:                                               ; preds = %68
  %73 = load ptr, ptr %3, align 8, !tbaa !10
  %74 = getelementptr inbounds nuw %struct.CVodeMemRec, ptr %73, i32 0, i32 61
  %75 = load i32, ptr %5, align 4, !tbaa !3
  %76 = sub nsw i32 %75, 1
  %77 = sext i32 %76 to i64
  %78 = getelementptr inbounds [13 x ptr], ptr %74, i64 0, i64 %77
  %79 = load ptr, ptr %78, align 8, !tbaa !151
  %80 = load ptr, ptr %3, align 8, !tbaa !10
  %81 = getelementptr inbounds nuw %struct.CVodeMemRec, ptr %80, i32 0, i32 61
  %82 = load i32, ptr %5, align 4, !tbaa !3
  %83 = sext i32 %82 to i64
  %84 = getelementptr inbounds [13 x ptr], ptr %81, i64 0, i64 %83
  %85 = load ptr, ptr %84, align 8, !tbaa !151
  %86 = load ptr, ptr %3, align 8, !tbaa !10
  %87 = getelementptr inbounds nuw %struct.CVodeMemRec, ptr %86, i32 0, i32 61
  %88 = load i32, ptr %5, align 4, !tbaa !3
  %89 = sub nsw i32 %88, 1
  %90 = sext i32 %89 to i64
  %91 = getelementptr inbounds [13 x ptr], ptr %87, i64 0, i64 %90
  %92 = load ptr, ptr %91, align 8, !tbaa !151
  call void @N_VLinearSum(double noundef 1.000000e+00, ptr noundef %79, double noundef -1.000000e+00, ptr noundef %85, ptr noundef %92)
  br label %93

93:                                               ; preds = %72
  %94 = load i32, ptr %5, align 4, !tbaa !3
  %95 = add nsw i32 %94, -1
  store i32 %95, ptr %5, align 4, !tbaa !3
  br label %68

96:                                               ; preds = %68
  br label %97

97:                                               ; preds = %96
  %98 = load i32, ptr %6, align 4, !tbaa !3
  %99 = add nsw i32 %98, 1
  store i32 %99, ptr %6, align 4, !tbaa !3
  br label %58

100:                                              ; preds = %58
  br label %101

101:                                              ; preds = %100, %52
  %102 = load ptr, ptr %3, align 8, !tbaa !10
  %103 = getelementptr inbounds nuw %struct.CVodeMemRec, ptr %102, i32 0, i32 22
  %104 = load i32, ptr %103, align 4, !tbaa !80
  %105 = icmp ne i32 %104, 0
  br i1 %105, label %106, label %154

106:                                              ; preds = %101
  store i32 1, ptr %6, align 4, !tbaa !3
  br label %107

107:                                              ; preds = %150, %106
  %108 = load i32, ptr %6, align 4, !tbaa !3
  %109 = load ptr, ptr %3, align 8, !tbaa !10
  %110 = getelementptr inbounds nuw %struct.CVodeMemRec, ptr %109, i32 0, i32 82
  %111 = load i32, ptr %110, align 8, !tbaa !169
  %112 = icmp sle i32 %108, %111
  br i1 %112, label %113, label %153

113:                                              ; preds = %107
  %114 = load ptr, ptr %3, align 8, !tbaa !10
  %115 = getelementptr inbounds nuw %struct.CVodeMemRec, ptr %114, i32 0, i32 82
  %116 = load i32, ptr %115, align 8, !tbaa !169
  store i32 %116, ptr %5, align 4, !tbaa !3
  br label %117

117:                                              ; preds = %146, %113
  %118 = load i32, ptr %5, align 4, !tbaa !3
  %119 = load i32, ptr %6, align 4, !tbaa !3
  %120 = icmp sge i32 %118, %119
  br i1 %120, label %121, label %149

121:                                              ; preds = %117
  %122 = load ptr, ptr %3, align 8, !tbaa !10
  %123 = getelementptr inbounds nuw %struct.CVodeMemRec, ptr %122, i32 0, i32 23
  %124 = load i32, ptr %123, align 8, !tbaa !230
  %125 = load ptr, ptr %3, align 8, !tbaa !10
  %126 = getelementptr inbounds nuw %struct.CVodeMemRec, ptr %125, i32 0, i32 66
  %127 = load i32, ptr %5, align 4, !tbaa !3
  %128 = sub nsw i32 %127, 1
  %129 = sext i32 %128 to i64
  %130 = getelementptr inbounds [13 x ptr], ptr %126, i64 0, i64 %129
  %131 = load ptr, ptr %130, align 8, !tbaa !152
  %132 = load ptr, ptr %3, align 8, !tbaa !10
  %133 = getelementptr inbounds nuw %struct.CVodeMemRec, ptr %132, i32 0, i32 66
  %134 = load i32, ptr %5, align 4, !tbaa !3
  %135 = sext i32 %134 to i64
  %136 = getelementptr inbounds [13 x ptr], ptr %133, i64 0, i64 %135
  %137 = load ptr, ptr %136, align 8, !tbaa !152
  %138 = load ptr, ptr %3, align 8, !tbaa !10
  %139 = getelementptr inbounds nuw %struct.CVodeMemRec, ptr %138, i32 0, i32 66
  %140 = load i32, ptr %5, align 4, !tbaa !3
  %141 = sub nsw i32 %140, 1
  %142 = sext i32 %141 to i64
  %143 = getelementptr inbounds [13 x ptr], ptr %139, i64 0, i64 %142
  %144 = load ptr, ptr %143, align 8, !tbaa !152
  %145 = call i32 @N_VLinearSumVectorArray(i32 noundef %124, double noundef 1.000000e+00, ptr noundef %131, double noundef -1.000000e+00, ptr noundef %137, ptr noundef %144)
  br label %146

146:                                              ; preds = %121
  %147 = load i32, ptr %5, align 4, !tbaa !3
  %148 = add nsw i32 %147, -1
  store i32 %148, ptr %5, align 4, !tbaa !3
  br label %117

149:                                              ; preds = %117
  br label %150

150:                                              ; preds = %149
  %151 = load i32, ptr %6, align 4, !tbaa !3
  %152 = add nsw i32 %151, 1
  store i32 %152, ptr %6, align 4, !tbaa !3
  br label %107

153:                                              ; preds = %107
  br label %154

154:                                              ; preds = %153, %101
  %155 = load ptr, ptr %3, align 8, !tbaa !10
  %156 = getelementptr inbounds nuw %struct.CVodeMemRec, ptr %155, i32 0, i32 41
  %157 = load i32, ptr %156, align 8, !tbaa !98
  %158 = icmp ne i32 %157, 0
  br i1 %158, label %159, label %207

159:                                              ; preds = %154
  store i32 1, ptr %6, align 4, !tbaa !3
  br label %160

160:                                              ; preds = %203, %159
  %161 = load i32, ptr %6, align 4, !tbaa !3
  %162 = load ptr, ptr %3, align 8, !tbaa !10
  %163 = getelementptr inbounds nuw %struct.CVodeMemRec, ptr %162, i32 0, i32 82
  %164 = load i32, ptr %163, align 8, !tbaa !169
  %165 = icmp sle i32 %161, %164
  br i1 %165, label %166, label %206

166:                                              ; preds = %160
  %167 = load ptr, ptr %3, align 8, !tbaa !10
  %168 = getelementptr inbounds nuw %struct.CVodeMemRec, ptr %167, i32 0, i32 82
  %169 = load i32, ptr %168, align 8, !tbaa !169
  store i32 %169, ptr %5, align 4, !tbaa !3
  br label %170

170:                                              ; preds = %199, %166
  %171 = load i32, ptr %5, align 4, !tbaa !3
  %172 = load i32, ptr %6, align 4, !tbaa !3
  %173 = icmp sge i32 %171, %172
  br i1 %173, label %174, label %202

174:                                              ; preds = %170
  %175 = load ptr, ptr %3, align 8, !tbaa !10
  %176 = getelementptr inbounds nuw %struct.CVodeMemRec, ptr %175, i32 0, i32 23
  %177 = load i32, ptr %176, align 8, !tbaa !230
  %178 = load ptr, ptr %3, align 8, !tbaa !10
  %179 = getelementptr inbounds nuw %struct.CVodeMemRec, ptr %178, i32 0, i32 73
  %180 = load i32, ptr %5, align 4, !tbaa !3
  %181 = sub nsw i32 %180, 1
  %182 = sext i32 %181 to i64
  %183 = getelementptr inbounds [13 x ptr], ptr %179, i64 0, i64 %182
  %184 = load ptr, ptr %183, align 8, !tbaa !152
  %185 = load ptr, ptr %3, align 8, !tbaa !10
  %186 = getelementptr inbounds nuw %struct.CVodeMemRec, ptr %185, i32 0, i32 73
  %187 = load i32, ptr %5, align 4, !tbaa !3
  %188 = sext i32 %187 to i64
  %189 = getelementptr inbounds [13 x ptr], ptr %186, i64 0, i64 %188
  %190 = load ptr, ptr %189, align 8, !tbaa !152
  %191 = load ptr, ptr %3, align 8, !tbaa !10
  %192 = getelementptr inbounds nuw %struct.CVodeMemRec, ptr %191, i32 0, i32 73
  %193 = load i32, ptr %5, align 4, !tbaa !3
  %194 = sub nsw i32 %193, 1
  %195 = sext i32 %194 to i64
  %196 = getelementptr inbounds [13 x ptr], ptr %192, i64 0, i64 %195
  %197 = load ptr, ptr %196, align 8, !tbaa !152
  %198 = call i32 @N_VLinearSumVectorArray(i32 noundef %177, double noundef 1.000000e+00, ptr noundef %184, double noundef -1.000000e+00, ptr noundef %190, ptr noundef %197)
  br label %199

199:                                              ; preds = %174
  %200 = load i32, ptr %5, align 4, !tbaa !3
  %201 = add nsw i32 %200, -1
  store i32 %201, ptr %5, align 4, !tbaa !3
  br label %170

202:                                              ; preds = %170
  br label %203

203:                                              ; preds = %202
  %204 = load i32, ptr %6, align 4, !tbaa !3
  %205 = add nsw i32 %204, 1
  store i32 %205, ptr %6, align 4, !tbaa !3
  br label %160

206:                                              ; preds = %160
  br label %207

207:                                              ; preds = %206, %154
  call void @llvm.lifetime.end.p0(i64 4, ptr %6) #10
  call void @llvm.lifetime.end.p0(i64 4, ptr %5) #10
  ret void
}