; Function Attrs: nounwind uwtable
define void @cvRestore(ptr noundef captures(none) initializes((1032, 1040)) %0, double noundef %1) local_unnamed_addr #0 {
  %3 = getelementptr inbounds nuw i8, ptr %0, i64 1032
  store double %1, ptr %3, align 8, !tbaa !106
  %4 = getelementptr inbounds nuw i8, ptr %0, i64 960
  %5 = load i32, ptr %4, align 8, !tbaa !108
  %.not85 = icmp slt i32 %5, 1
  br i1 %.not85, label %._crit_edge, label %.preheader83.lr.ph

.preheader83.lr.ph:                               ; preds = %2
  %6 = getelementptr inbounds nuw i8, ptr %0, i64 336
  br label %.preheader83

.preheader83:                                     ; preds = %.preheader83.lr.ph, %14
  %indvars.iv97 = phi i64 [ 1, %.preheader83.lr.ph ], [ %indvars.iv.next98, %14 ]
  %7 = phi i32 [ %5, %.preheader83.lr.ph ], [ %15, %14 ]
  %8 = sext i32 %7 to i64
  br label %9

9:                                                ; preds = %.preheader83, %9
  %indvars.iv = phi i64 [ %8, %.preheader83 ], [ %indvars.iv.next, %9 ]
  %indvars.iv.next = add nsw i64 %indvars.iv, -1
  %10 = getelementptr inbounds [13 x ptr], ptr %6, i64 0, i64 %indvars.iv.next
  %11 = load ptr, ptr %10, align 8, !tbaa !65
  %12 = getelementptr inbounds [13 x ptr], ptr %6, i64 0, i64 %indvars.iv
  %13 = load ptr, ptr %12, align 8, !tbaa !65
  tail call void @N_VLinearSum(double noundef 1.000000e+00, ptr noundef %11, double noundef -1.000000e+00, ptr noundef %13, ptr noundef %11) #13
  %.not75.not = icmp sgt i64 %indvars.iv, %indvars.iv97
  br i1 %.not75.not, label %9, label %14

14:                                               ; preds = %9
  %indvars.iv.next98 = add nuw nsw i64 %indvars.iv97, 1
  %15 = load i32, ptr %4, align 8, !tbaa !108
  %16 = sext i32 %15 to i64
  %.not.not = icmp slt i64 %indvars.iv97, %16
  br i1 %.not.not, label %.preheader83, label %._crit_edge

._crit_edge:                                      ; preds = %14, %2
  %17 = phi i32 [ %5, %2 ], [ %15, %14 ]
  %18 = getelementptr inbounds nuw i8, ptr %0, i64 92
  %19 = load i32, ptr %18, align 4, !tbaa !148
  %.not66 = icmp eq i32 %19, 0
  %.not6788 = icmp slt i32 %17, 1
  %or.cond = or i1 %.not66, %.not6788
  br i1 %or.cond, label %.loopexit82, label %.preheader80.lr.ph

.preheader80.lr.ph:                               ; preds = %._crit_edge
  %20 = getelementptr inbounds nuw i8, ptr %0, i64 512
  br label %.preheader80

.preheader80:                                     ; preds = %.preheader80.lr.ph, %28
  %indvars.iv103 = phi i64 [ 1, %.preheader80.lr.ph ], [ %indvars.iv.next104, %28 ]
  %21 = phi i32 [ %17, %.preheader80.lr.ph ], [ %29, %28 ]
  %22 = sext i32 %21 to i64
  br label %23

23:                                               ; preds = %.preheader80, %23
  %indvars.iv100 = phi i64 [ %22, %.preheader80 ], [ %indvars.iv.next101, %23 ]
  %indvars.iv.next101 = add nsw i64 %indvars.iv100, -1
  %24 = getelementptr inbounds [13 x ptr], ptr %20, i64 0, i64 %indvars.iv.next101
  %25 = load ptr, ptr %24, align 8, !tbaa !65
  %26 = getelementptr inbounds [13 x ptr], ptr %20, i64 0, i64 %indvars.iv100
  %27 = load ptr, ptr %26, align 8, !tbaa !65
  tail call void @N_VLinearSum(double noundef 1.000000e+00, ptr noundef %25, double noundef -1.000000e+00, ptr noundef %27, ptr noundef %25) #13
  %.not74.not = icmp sgt i64 %indvars.iv100, %indvars.iv103
  br i1 %.not74.not, label %23, label %28

28:                                               ; preds = %23
  %indvars.iv.next104 = add nuw nsw i64 %indvars.iv103, 1
  %29 = load i32, ptr %4, align 8, !tbaa !108
  %30 = sext i32 %29 to i64
  %.not67.not = icmp slt i64 %indvars.iv103, %30
  br i1 %.not67.not, label %.preheader80, label %.loopexit82

.loopexit82:                                      ; preds = %28, %._crit_edge
  %31 = phi i32 [ %17, %._crit_edge ], [ %29, %28 ]
  %32 = getelementptr inbounds nuw i8, ptr %0, i64 140
  %33 = load i32, ptr %32, align 4, !tbaa !166
  %.not68 = icmp eq i32 %33, 0
  %.not6991 = icmp slt i32 %31, 1
  %or.cond120 = or i1 %.not68, %.not6991
  br i1 %or.cond120, label %.loopexit79, label %.preheader77.lr.ph

.preheader77.lr.ph:                               ; preds = %.loopexit82
  %34 = getelementptr inbounds nuw i8, ptr %0, i64 144
  %35 = getelementptr inbounds nuw i8, ptr %0, i64 648
  br label %.preheader77

.preheader77:                                     ; preds = %.preheader77.lr.ph, %45
  %indvars.iv109 = phi i64 [ 1, %.preheader77.lr.ph ], [ %indvars.iv.next110, %45 ]
  %36 = phi i32 [ %31, %.preheader77.lr.ph ], [ %46, %45 ]
  %37 = sext i32 %36 to i64
  br label %38

38:                                               ; preds = %.preheader77, %38
  %indvars.iv106 = phi i64 [ %37, %.preheader77 ], [ %indvars.iv.next107, %38 ]
  %39 = load i32, ptr %34, align 8, !tbaa !156
  %indvars.iv.next107 = add nsw i64 %indvars.iv106, -1
  %40 = getelementptr inbounds [13 x ptr], ptr %35, i64 0, i64 %indvars.iv.next107
  %41 = load ptr, ptr %40, align 8, !tbaa !160
  %42 = getelementptr inbounds [13 x ptr], ptr %35, i64 0, i64 %indvars.iv106
  %43 = load ptr, ptr %42, align 8, !tbaa !160
  %44 = tail call i32 @N_VLinearSumVectorArray(i32 noundef %39, double noundef 1.000000e+00, ptr noundef %41, double noundef -1.000000e+00, ptr noundef %43, ptr noundef %41) #13
  %.not73.not = icmp sgt i64 %indvars.iv106, %indvars.iv109
  br i1 %.not73.not, label %38, label %45

45:                                               ; preds = %38
  %indvars.iv.next110 = add nuw nsw i64 %indvars.iv109, 1
  %46 = load i32, ptr %4, align 8, !tbaa !108
  %47 = sext i32 %46 to i64
  %.not69.not = icmp slt i64 %indvars.iv109, %47
  br i1 %.not69.not, label %.preheader77, label %.loopexit79

.loopexit79:                                      ; preds = %45, %.loopexit82
  %48 = phi i32 [ %31, %.loopexit82 ], [ %46, %45 ]
  %49 = getelementptr inbounds nuw i8, ptr %0, i64 264
  %50 = load i32, ptr %49, align 8, !tbaa !198
  %.not70 = icmp eq i32 %50, 0
  %.not7194 = icmp slt i32 %48, 1
  %or.cond121 = or i1 %.not70, %.not7194
  br i1 %or.cond121, label %.loopexit, label %.preheader.lr.ph

.preheader.lr.ph:                                 ; preds = %.loopexit79
  %51 = getelementptr inbounds nuw i8, ptr %0, i64 144
  %52 = getelementptr inbounds nuw i8, ptr %0, i64 800
  br label %.preheader

.preheader:                                       ; preds = %.preheader.lr.ph, %62
  %indvars.iv115 = phi i64 [ 1, %.preheader.lr.ph ], [ %indvars.iv.next116, %62 ]
  %53 = phi i32 [ %48, %.preheader.lr.ph ], [ %63, %62 ]
  %54 = sext i32 %53 to i64
  br label %55

55:                                               ; preds = %.preheader, %55
  %indvars.iv112 = phi i64 [ %54, %.preheader ], [ %indvars.iv.next113, %55 ]
  %56 = load i32, ptr %51, align 8, !tbaa !156
  %indvars.iv.next113 = add nsw i64 %indvars.iv112, -1
  %57 = getelementptr inbounds [13 x ptr], ptr %52, i64 0, i64 %indvars.iv.next113
  %58 = load ptr, ptr %57, align 8, !tbaa !160
  %59 = getelementptr inbounds [13 x ptr], ptr %52, i64 0, i64 %indvars.iv112
  %60 = load ptr, ptr %59, align 8, !tbaa !160
  %61 = tail call i32 @N_VLinearSumVectorArray(i32 noundef %56, double noundef 1.000000e+00, ptr noundef %58, double noundef -1.000000e+00, ptr noundef %60, ptr noundef %58) #13
  %.not72.not = icmp sgt i64 %indvars.iv112, %indvars.iv115
  br i1 %.not72.not, label %55, label %62

62:                                               ; preds = %55
  %indvars.iv.next116 = add nuw nsw i64 %indvars.iv115, 1
  %63 = load i32, ptr %4, align 8, !tbaa !108
  %64 = sext i32 %63 to i64
  %.not71.not = icmp slt i64 %indvars.iv115, %64
  br i1 %.not71.not, label %.preheader, label %.loopexit

.loopexit:                                        ; preds = %62, %.loopexit79
  ret void
}